
main.elf:     file format elf32-avr

Sections:
Idx Name          Size      VMA       LMA       File off  Algn
  0 .data         0000004e  00800100  0000052a  000005be  2**0
                  CONTENTS, ALLOC, LOAD, DATA
  1 .text         0000052a  00000000  00000000  00000094  2**1
                  CONTENTS, ALLOC, LOAD, READONLY, CODE
  2 .bss          00005581  0080014e  0080014e  0000060c  2**0
                  ALLOC
  3 .stab         000006cc  00000000  00000000  0000060c  2**2
                  CONTENTS, READONLY, DEBUGGING
  4 .stabstr      00000081  00000000  00000000  00000cd8  2**0
                  CONTENTS, READONLY, DEBUGGING
  5 .debug_aranges 00000080  00000000  00000000  00000d60  2**3
                  CONTENTS, READONLY, DEBUGGING
  6 .debug_info   00000304  00000000  00000000  00000de0  2**0
                  CONTENTS, READONLY, DEBUGGING
  7 .debug_abbrev 00000050  00000000  00000000  000010e4  2**0
                  CONTENTS, READONLY, DEBUGGING
  8 .debug_line   000001a4  00000000  00000000  00001134  2**0
                  CONTENTS, READONLY, DEBUGGING

Disassembly of section .text:

00000000 <__vectors>:
   0:	45 c0       	rjmp	.+138    	; 0x8c <__ctors_end>
   2:	00 00       	nop
   4:	61 c0       	rjmp	.+194    	; 0xc8 <__bad_interrupt>
   6:	00 00       	nop
   8:	5f c0       	rjmp	.+190    	; 0xc8 <__bad_interrupt>
   a:	00 00       	nop
   c:	5d c0       	rjmp	.+186    	; 0xc8 <__bad_interrupt>
   e:	00 00       	nop
  10:	5b c0       	rjmp	.+182    	; 0xc8 <__bad_interrupt>
  12:	00 00       	nop
  14:	59 c0       	rjmp	.+178    	; 0xc8 <__bad_interrupt>
  16:	00 00       	nop
  18:	57 c0       	rjmp	.+174    	; 0xc8 <__bad_interrupt>
  1a:	00 00       	nop
  1c:	55 c0       	rjmp	.+170    	; 0xc8 <__bad_interrupt>
  1e:	00 00       	nop
  20:	53 c0       	rjmp	.+166    	; 0xc8 <__bad_interrupt>
  22:	00 00       	nop
  24:	51 c0       	rjmp	.+162    	; 0xc8 <__bad_interrupt>
  26:	00 00       	nop
  28:	4f c0       	rjmp	.+158    	; 0xc8 <__bad_interrupt>
  2a:	00 00       	nop
  2c:	4d c0       	rjmp	.+154    	; 0xc8 <__bad_interrupt>
  2e:	00 00       	nop
  30:	c8 c1       	rjmp	.+912    	; 0x3c2 <__vector_12>
  32:	00 00       	nop
  34:	49 c0       	rjmp	.+146    	; 0xc8 <__bad_interrupt>
  36:	00 00       	nop
  38:	47 c0       	rjmp	.+142    	; 0xc8 <__bad_interrupt>
  3a:	00 00       	nop
  3c:	45 c0       	rjmp	.+138    	; 0xc8 <__bad_interrupt>
  3e:	00 00       	nop
  40:	43 c0       	rjmp	.+134    	; 0xc8 <__bad_interrupt>
  42:	00 00       	nop
  44:	41 c0       	rjmp	.+130    	; 0xc8 <__bad_interrupt>
  46:	00 00       	nop
  48:	3f c0       	rjmp	.+126    	; 0xc8 <__bad_interrupt>
  4a:	00 00       	nop
  4c:	3d c0       	rjmp	.+122    	; 0xc8 <__bad_interrupt>
  4e:	00 00       	nop
  50:	3b c0       	rjmp	.+118    	; 0xc8 <__bad_interrupt>
  52:	00 00       	nop
  54:	39 c0       	rjmp	.+114    	; 0xc8 <__bad_interrupt>
  56:	00 00       	nop
  58:	37 c0       	rjmp	.+110    	; 0xc8 <__bad_interrupt>
  5a:	00 00       	nop
  5c:	35 c0       	rjmp	.+106    	; 0xc8 <__bad_interrupt>
  5e:	00 00       	nop
  60:	33 c0       	rjmp	.+102    	; 0xc8 <__bad_interrupt>
  62:	00 00       	nop
  64:	31 c0       	rjmp	.+98     	; 0xc8 <__bad_interrupt>
  66:	00 00       	nop
  68:	2f c0       	rjmp	.+94     	; 0xc8 <__bad_interrupt>
  6a:	00 00       	nop
  6c:	2d c0       	rjmp	.+90     	; 0xc8 <__bad_interrupt>
  6e:	00 00       	nop
  70:	2b c0       	rjmp	.+86     	; 0xc8 <__bad_interrupt>
  72:	00 00       	nop
  74:	29 c0       	rjmp	.+82     	; 0xc8 <__bad_interrupt>
  76:	00 00       	nop
  78:	27 c0       	rjmp	.+78     	; 0xc8 <__bad_interrupt>
  7a:	00 00       	nop
  7c:	25 c0       	rjmp	.+74     	; 0xc8 <__bad_interrupt>
  7e:	00 00       	nop
  80:	23 c0       	rjmp	.+70     	; 0xc8 <__bad_interrupt>
  82:	00 00       	nop
  84:	21 c0       	rjmp	.+66     	; 0xc8 <__bad_interrupt>
  86:	00 00       	nop
  88:	1f c0       	rjmp	.+62     	; 0xc8 <__bad_interrupt>
  8a:	00 00       	nop

0000008c <__ctors_end>:
  8c:	11 24       	eor	r1, r1
  8e:	1f be       	out	0x3f, r1	; 63
  90:	cf ef       	ldi	r28, 0xFF	; 255
  92:	d0 e1       	ldi	r29, 0x10	; 16
  94:	de bf       	out	0x3e, r29	; 62
  96:	cd bf       	out	0x3d, r28	; 61

00000098 <__do_copy_data>:
  98:	11 e0       	ldi	r17, 0x01	; 1
  9a:	a0 e0       	ldi	r26, 0x00	; 0
  9c:	b1 e0       	ldi	r27, 0x01	; 1
  9e:	ea e2       	ldi	r30, 0x2A	; 42
  a0:	f5 e0       	ldi	r31, 0x05	; 5
  a2:	00 e0       	ldi	r16, 0x00	; 0
  a4:	0b bf       	out	0x3b, r16	; 59
  a6:	02 c0       	rjmp	.+4      	; 0xac <__do_copy_data+0x14>
  a8:	07 90       	elpm	r0, Z+
  aa:	0d 92       	st	X+, r0
  ac:	ae 34       	cpi	r26, 0x4E	; 78
  ae:	b1 07       	cpc	r27, r17
  b0:	d9 f7       	brne	.-10     	; 0xa8 <__do_copy_data+0x10>
  b2:	1b be       	out	0x3b, r1	; 59

000000b4 <__do_clear_bss>:
  b4:	16 e5       	ldi	r17, 0x56	; 86
  b6:	ae e4       	ldi	r26, 0x4E	; 78
  b8:	b1 e0       	ldi	r27, 0x01	; 1
  ba:	01 c0       	rjmp	.+2      	; 0xbe <.do_clear_bss_start>

000000bc <.do_clear_bss_loop>:
  bc:	1d 92       	st	X+, r1

000000be <.do_clear_bss_start>:
  be:	af 3c       	cpi	r26, 0xCF	; 207
  c0:	b1 07       	cpc	r27, r17
  c2:	e1 f7       	brne	.-8      	; 0xbc <.do_clear_bss_loop>
  c4:	8a d1       	rcall	.+788    	; 0x3da <main>
  c6:	2f c2       	rjmp	.+1118   	; 0x526 <_exit>

000000c8 <__bad_interrupt>:
  c8:	9b cf       	rjmp	.-202    	; 0x0 <__vectors>

000000ca <ddr_setup>:
  ca:	1a ba       	out	0x1a, r1	; 26
  cc:	87 b3       	in	r24, 0x17	; 23
  ce:	87 60       	ori	r24, 0x07	; 7
  d0:	87 bb       	out	0x17, r24	; 23
  d2:	bb 98       	cbi	0x17, 3	; 23
  d4:	bf 98       	cbi	0x17, 7	; 23
  d6:	bd 9a       	sbi	0x17, 5	; 23
  d8:	bc 9a       	sbi	0x17, 4	; 23
  da:	be 9a       	sbi	0x17, 6	; 23
  dc:	8f ef       	ldi	r24, 0xFF	; 255
  de:	84 bb       	out	0x14, r24	; 20
  e0:	8b 9a       	sbi	0x11, 3	; 17
  e2:	8a 98       	cbi	0x11, 2	; 17
  e4:	8c 9a       	sbi	0x11, 4	; 17
  e6:	08 95       	ret

000000e8 <spi_setup>:
  e8:	80 e5       	ldi	r24, 0x50	; 80
  ea:	8d b9       	out	0x0d, r24	; 13
  ec:	81 e0       	ldi	r24, 0x01	; 1
  ee:	8e b9       	out	0x0e, r24	; 14
  f0:	08 95       	ret

000000f2 <pwm_setup>:
  f2:	80 e4       	ldi	r24, 0x40	; 64
  f4:	8f bd       	out	0x2f, r24	; 47
  f6:	89 e0       	ldi	r24, 0x09	; 9
  f8:	8e bd       	out	0x2e, r24	; 46
  fa:	88 e2       	ldi	r24, 0x28	; 40
  fc:	90 e0       	ldi	r25, 0x00	; 0
  fe:	9b bd       	out	0x2b, r25	; 43
 100:	8a bd       	out	0x2a, r24	; 42
 102:	80 e1       	ldi	r24, 0x10	; 16
 104:	87 bf       	out	0x37, r24	; 55
 106:	08 95       	ret

00000108 <spi_sendbyte>:
 108:	8f b9       	out	0x0f, r24	; 15
 10a:	77 9b       	sbis	0x0e, 7	; 14
 10c:	fe cf       	rjmp	.-4      	; 0x10a <spi_sendbyte+0x2>
 10e:	08 95       	ret

00000110 <spi_sendarray>:
 110:	ef 92       	push	r14
 112:	ff 92       	push	r15
 114:	1f 93       	push	r17
 116:	cf 93       	push	r28
 118:	df 93       	push	r29
 11a:	0f 92       	push	r0
 11c:	cd b7       	in	r28, 0x3d	; 61
 11e:	de b7       	in	r29, 0x3e	; 62
 120:	18 2f       	mov	r17, r24
 122:	e8 2e       	mov	r14, r24
 124:	f9 2e       	mov	r15, r25
 126:	06 c0       	rjmp	.+12     	; 0x134 <spi_sendarray+0x24>
 128:	f7 01       	movw	r30, r14
 12a:	81 91       	ld	r24, Z+
 12c:	7f 01       	movw	r14, r30
 12e:	69 83       	std	Y+1, r22	; 0x01
 130:	eb df       	rcall	.-42     	; 0x108 <spi_sendbyte>
 132:	69 81       	ldd	r22, Y+1	; 0x01
 134:	8e 2d       	mov	r24, r14
 136:	81 1b       	sub	r24, r17
 138:	86 17       	cp	r24, r22
 13a:	b0 f3       	brcs	.-20     	; 0x128 <spi_sendarray+0x18>
 13c:	0f 90       	pop	r0
 13e:	df 91       	pop	r29
 140:	cf 91       	pop	r28
 142:	1f 91       	pop	r17
 144:	ff 90       	pop	r15
 146:	ef 90       	pop	r14
 148:	08 95       	ret

0000014a <COG_sendbyte>:
 14a:	1f 93       	push	r17
 14c:	cf 93       	push	r28
 14e:	df 93       	push	r29
 150:	0f 92       	push	r0
 152:	cd b7       	in	r28, 0x3d	; 61
 154:	de b7       	in	r29, 0x3e	; 62
 156:	18 2f       	mov	r17, r24
 158:	c0 98       	cbi	0x18, 0	; 24
 15a:	80 e7       	ldi	r24, 0x70	; 112
 15c:	69 83       	std	Y+1, r22	; 0x01
 15e:	d4 df       	rcall	.-88     	; 0x108 <spi_sendbyte>
 160:	81 2f       	mov	r24, r17
 162:	d2 df       	rcall	.-92     	; 0x108 <spi_sendbyte>
 164:	c0 9a       	sbi	0x18, 0	; 24
 166:	85 e3       	ldi	r24, 0x35	; 53
 168:	8a 95       	dec	r24
 16a:	f1 f7       	brne	.-4      	; 0x168 <COG_sendbyte+0x1e>
 16c:	00 00       	nop
 16e:	c0 98       	cbi	0x18, 0	; 24
 170:	82 e7       	ldi	r24, 0x72	; 114
 172:	ca df       	rcall	.-108    	; 0x108 <spi_sendbyte>
 174:	69 81       	ldd	r22, Y+1	; 0x01
 176:	86 2f       	mov	r24, r22
 178:	c7 df       	rcall	.-114    	; 0x108 <spi_sendbyte>
 17a:	c0 9a       	sbi	0x18, 0	; 24
 17c:	0f 90       	pop	r0
 17e:	df 91       	pop	r29
 180:	cf 91       	pop	r28
 182:	1f 91       	pop	r17
 184:	08 95       	ret

00000186 <COG_sendarray>:
 186:	ef 92       	push	r14
 188:	ff 92       	push	r15
 18a:	1f 93       	push	r17
 18c:	cf 93       	push	r28
 18e:	df 93       	push	r29
 190:	0f 92       	push	r0
 192:	cd b7       	in	r28, 0x3d	; 61
 194:	de b7       	in	r29, 0x3e	; 62
 196:	18 2f       	mov	r17, r24
 198:	7b 01       	movw	r14, r22
 19a:	c0 98       	cbi	0x18, 0	; 24
 19c:	80 e7       	ldi	r24, 0x70	; 112
 19e:	49 83       	std	Y+1, r20	; 0x01
 1a0:	b3 df       	rcall	.-154    	; 0x108 <spi_sendbyte>
 1a2:	81 2f       	mov	r24, r17
 1a4:	b1 df       	rcall	.-158    	; 0x108 <spi_sendbyte>
 1a6:	c0 9a       	sbi	0x18, 0	; 24
 1a8:	85 e3       	ldi	r24, 0x35	; 53
 1aa:	8a 95       	dec	r24
 1ac:	f1 f7       	brne	.-4      	; 0x1aa <COG_sendarray+0x24>
 1ae:	00 00       	nop
 1b0:	c0 98       	cbi	0x18, 0	; 24
 1b2:	82 e7       	ldi	r24, 0x72	; 114
 1b4:	a9 df       	rcall	.-174    	; 0x108 <spi_sendbyte>
 1b6:	c7 01       	movw	r24, r14
 1b8:	49 81       	ldd	r20, Y+1	; 0x01
 1ba:	64 2f       	mov	r22, r20
 1bc:	a9 df       	rcall	.-174    	; 0x110 <spi_sendarray>
 1be:	c0 9a       	sbi	0x18, 0	; 24
 1c0:	0f 90       	pop	r0
 1c2:	df 91       	pop	r29
 1c4:	cf 91       	pop	r28
 1c6:	1f 91       	pop	r17
 1c8:	ff 90       	pop	r15
 1ca:	ef 90       	pop	r14
 1cc:	08 95       	ret

000001ce <fill_image_buff>:
 1ce:	9c 01       	movw	r18, r24
 1d0:	50 e6       	ldi	r21, 0x60	; 96
 1d2:	20 c0       	rjmp	.+64     	; 0x214 <fill_image_buff+0x46>
 1d4:	61 93       	st	Z+, r22
 1d6:	81 50       	subi	r24, 0x01	; 1
 1d8:	e9 f7       	brne	.-6      	; 0x1d4 <fill_image_buff+0x6>
 1da:	80 e0       	ldi	r24, 0x00	; 0
 1dc:	90 e0       	ldi	r25, 0x00	; 0
 1de:	f9 01       	movw	r30, r18
 1e0:	e8 0f       	add	r30, r24
 1e2:	f9 1f       	adc	r31, r25
 1e4:	41 8f       	std	Z+25, r20	; 0x19
 1e6:	01 96       	adiw	r24, 0x01	; 1
 1e8:	89 31       	cpi	r24, 0x19	; 25
 1ea:	91 05       	cpc	r25, r1
 1ec:	c1 f7       	brne	.-16     	; 0x1de <fill_image_buff+0x10>
 1ee:	80 e0       	ldi	r24, 0x00	; 0
 1f0:	90 e0       	ldi	r25, 0x00	; 0
 1f2:	f9 01       	movw	r30, r18
 1f4:	e8 0f       	add	r30, r24
 1f6:	f9 1f       	adc	r31, r25
 1f8:	62 ab       	sts	0x52, r22
 1fa:	01 96       	adiw	r24, 0x01	; 1
 1fc:	89 31       	cpi	r24, 0x19	; 25
 1fe:	91 05       	cpc	r25, r1
 200:	c1 f7       	brne	.-16     	; 0x1f2 <fill_image_buff+0x24>
 202:	f9 01       	movw	r30, r18
 204:	e5 5b       	subi	r30, 0xB5	; 181
 206:	ff 4f       	sbci	r31, 0xFF	; 255
 208:	10 82       	st	Z, r1
 20a:	51 50       	subi	r21, 0x01	; 1
 20c:	20 5a       	subi	r18, 0xA0	; 160
 20e:	3f 4f       	sbci	r19, 0xFF	; 255
 210:	55 23       	and	r21, r21
 212:	19 f0       	breq	.+6      	; 0x21a <fill_image_buff+0x4c>
 214:	f9 01       	movw	r30, r18
 216:	89 e1       	ldi	r24, 0x19	; 25
 218:	dd cf       	rjmp	.-70     	; 0x1d4 <fill_image_buff+0x6>
 21a:	08 95       	ret

0000021c <COG_startup>:
 21c:	80 e0       	ldi	r24, 0x00	; 0
 21e:	91 e0       	ldi	r25, 0x01	; 1
 220:	6d e0       	ldi	r22, 0x0D	; 13
 222:	42 d1       	rcall	.+644    	; 0x4a8 <usart_sendarray>
 224:	8e b5       	in	r24, 0x2e	; 46
 226:	81 60       	ori	r24, 0x01	; 1
 228:	8e bd       	out	0x2e, r24	; 46
 22a:	8f e1       	ldi	r24, 0x1F	; 31
 22c:	9e e4       	ldi	r25, 0x4E	; 78
 22e:	01 97       	sbiw	r24, 0x01	; 1
 230:	f1 f7       	brne	.-4      	; 0x22e <COG_startup+0x12>
 232:	00 c0       	rjmp	.+0      	; 0x234 <COG_startup+0x18>
 234:	00 00       	nop
 236:	c0 9a       	sbi	0x18, 0	; 24
 238:	8f e3       	ldi	r24, 0x3F	; 63
 23a:	9c e9       	ldi	r25, 0x9C	; 156
 23c:	01 97       	sbiw	r24, 0x01	; 1
 23e:	f1 f7       	brne	.-4      	; 0x23c <COG_startup+0x20>
 240:	00 c0       	rjmp	.+0      	; 0x242 <COG_startup+0x26>
 242:	00 00       	nop
 244:	c0 9a       	sbi	0x18, 0	; 24
 246:	c4 9a       	sbi	0x18, 4	; 24
 248:	94 9a       	sbi	0x12, 4	; 18
 24a:	8f e1       	ldi	r24, 0x1F	; 31
 24c:	9e e4       	ldi	r25, 0x4E	; 78
 24e:	01 97       	sbiw	r24, 0x01	; 1
 250:	f1 f7       	brne	.-4      	; 0x24e <COG_startup+0x32>
 252:	00 c0       	rjmp	.+0      	; 0x254 <COG_startup+0x38>
 254:	00 00       	nop
 256:	94 98       	cbi	0x12, 4	; 18
 258:	8f e1       	ldi	r24, 0x1F	; 31
 25a:	9e e4       	ldi	r25, 0x4E	; 78
 25c:	01 97       	sbiw	r24, 0x01	; 1
 25e:	f1 f7       	brne	.-4      	; 0x25c <COG_startup+0x40>
 260:	00 c0       	rjmp	.+0      	; 0x262 <COG_startup+0x46>
 262:	00 00       	nop
 264:	94 9a       	sbi	0x12, 4	; 18
 266:	8f e1       	ldi	r24, 0x1F	; 31
 268:	9e e4       	ldi	r25, 0x4E	; 78
 26a:	01 97       	sbiw	r24, 0x01	; 1
 26c:	f1 f7       	brne	.-4      	; 0x26a <COG_startup+0x4e>
 26e:	00 c0       	rjmp	.+0      	; 0x270 <COG_startup+0x54>
 270:	00 00       	nop
 272:	08 95       	ret

00000274 <COG_init>:
 274:	cf 93       	push	r28
 276:	df 93       	push	r29
 278:	cd b7       	in	r28, 0x3d	; 61
 27a:	de b7       	in	r29, 0x3e	; 62
 27c:	2a 97       	sbiw	r28, 0x0a	; 10
 27e:	0f b6       	in	r0, 0x3f	; 63
 280:	f8 94       	cli
 282:	de bf       	out	0x3e, r29	; 62
 284:	0f be       	out	0x3f, r0	; 63
 286:	cd bf       	out	0x3d, r28	; 61
 288:	8e e0       	ldi	r24, 0x0E	; 14
 28a:	91 e0       	ldi	r25, 0x01	; 1
 28c:	69 e0       	ldi	r22, 0x09	; 9
 28e:	0c d1       	rcall	.+536    	; 0x4a8 <usart_sendarray>
 290:	1b 82       	std	Y+3, r1	; 0x03
 292:	1c 82       	std	Y+4, r1	; 0x04
 294:	1d 82       	std	Y+5, r1	; 0x05
 296:	1e 82       	std	Y+6, r1	; 0x06
 298:	81 e0       	ldi	r24, 0x01	; 1
 29a:	8f 83       	std	Y+7, r24	; 0x07
 29c:	8f ef       	ldi	r24, 0xFF	; 255
 29e:	88 87       	std	Y+8, r24	; 0x08
 2a0:	80 ee       	ldi	r24, 0xE0	; 224
 2a2:	89 87       	std	Y+9, r24	; 0x09
 2a4:	1a 86       	std	Y+10, r1	; 0x0a
 2a6:	80 ed       	ldi	r24, 0xD0	; 208
 2a8:	89 83       	std	Y+1, r24	; 0x01
 2aa:	1a 82       	std	Y+2, r1	; 0x02
 2ac:	88 e1       	ldi	r24, 0x18	; 24
 2ae:	91 e0       	ldi	r25, 0x01	; 1
 2b0:	65 e0       	ldi	r22, 0x05	; 5
 2b2:	fa d0       	rcall	.+500    	; 0x4a8 <usart_sendarray>
 2b4:	b7 99       	sbic	0x16, 7	; 22
 2b6:	fe cf       	rjmp	.-4      	; 0x2b4 <COG_init+0x40>
 2b8:	8e e1       	ldi	r24, 0x1E	; 30
 2ba:	91 e0       	ldi	r25, 0x01	; 1
 2bc:	69 e0       	ldi	r22, 0x09	; 9
 2be:	f4 d0       	rcall	.+488    	; 0x4a8 <usart_sendarray>
 2c0:	81 e0       	ldi	r24, 0x01	; 1
 2c2:	be 01       	movw	r22, r28
 2c4:	6d 5f       	subi	r22, 0xFD	; 253
 2c6:	7f 4f       	sbci	r23, 0xFF	; 255
 2c8:	48 e0       	ldi	r20, 0x08	; 8
 2ca:	5d df       	rcall	.-326    	; 0x186 <COG_sendarray>
 2cc:	88 e2       	ldi	r24, 0x28	; 40
 2ce:	91 e0       	ldi	r25, 0x01	; 1
 2d0:	6c e0       	ldi	r22, 0x0C	; 12
 2d2:	ea d0       	rcall	.+468    	; 0x4a8 <usart_sendarray>
 2d4:	86 e0       	ldi	r24, 0x06	; 6
 2d6:	6f ef       	ldi	r22, 0xFF	; 255
 2d8:	38 df       	rcall	.-400    	; 0x14a <COG_sendbyte>
 2da:	87 e0       	ldi	r24, 0x07	; 7
 2dc:	6d e9       	ldi	r22, 0x9D	; 157
 2de:	35 df       	rcall	.-406    	; 0x14a <COG_sendbyte>
 2e0:	88 e0       	ldi	r24, 0x08	; 8
 2e2:	60 e0       	ldi	r22, 0x00	; 0
 2e4:	32 df       	rcall	.-412    	; 0x14a <COG_sendbyte>
 2e6:	89 e0       	ldi	r24, 0x09	; 9
 2e8:	be 01       	movw	r22, r28
 2ea:	6f 5f       	subi	r22, 0xFF	; 255
 2ec:	7f 4f       	sbci	r23, 0xFF	; 255
 2ee:	42 e0       	ldi	r20, 0x02	; 2
 2f0:	4a df       	rcall	.-364    	; 0x186 <COG_sendarray>
 2f2:	84 e0       	ldi	r24, 0x04	; 4
 2f4:	63 e0       	ldi	r22, 0x03	; 3
 2f6:	29 df       	rcall	.-430    	; 0x14a <COG_sendbyte>
 2f8:	8f e1       	ldi	r24, 0x1F	; 31
 2fa:	9e e4       	ldi	r25, 0x4E	; 78
 2fc:	01 97       	sbiw	r24, 0x01	; 1
 2fe:	f1 f7       	brne	.-4      	; 0x2fc <COG_init+0x88>
 300:	00 c0       	rjmp	.+0      	; 0x302 <COG_init+0x8e>
 302:	00 00       	nop
 304:	83 e0       	ldi	r24, 0x03	; 3
 306:	61 e0       	ldi	r22, 0x01	; 1
 308:	20 df       	rcall	.-448    	; 0x14a <COG_sendbyte>
 30a:	83 e0       	ldi	r24, 0x03	; 3
 30c:	60 e0       	ldi	r22, 0x00	; 0
 30e:	1d df       	rcall	.-454    	; 0x14a <COG_sendbyte>
 310:	85 e0       	ldi	r24, 0x05	; 5
 312:	61 e0       	ldi	r22, 0x01	; 1
 314:	1a df       	rcall	.-460    	; 0x14a <COG_sendbyte>
 316:	8f ef       	ldi	r24, 0xFF	; 255
 318:	96 e7       	ldi	r25, 0x76	; 118
 31a:	a1 e0       	ldi	r26, 0x01	; 1
 31c:	81 50       	subi	r24, 0x01	; 1
 31e:	90 40       	sbci	r25, 0x00	; 0
 320:	a0 40       	sbci	r26, 0x00	; 0
 322:	e1 f7       	brne	.-8      	; 0x31c <COG_init+0xa8>
 324:	00 c0       	rjmp	.+0      	; 0x326 <COG_init+0xb2>
 326:	00 00       	nop
 328:	8e b5       	in	r24, 0x2e	; 46
 32a:	88 7f       	andi	r24, 0xF8	; 248
 32c:	8e bd       	out	0x2e, r24	; 46
 32e:	85 e0       	ldi	r24, 0x05	; 5
 330:	63 e0       	ldi	r22, 0x03	; 3
 332:	0b df       	rcall	.-490    	; 0x14a <COG_sendbyte>
 334:	8f ef       	ldi	r24, 0xFF	; 255
 336:	96 e7       	ldi	r25, 0x76	; 118
 338:	a1 e0       	ldi	r26, 0x01	; 1
 33a:	81 50       	subi	r24, 0x01	; 1
 33c:	90 40       	sbci	r25, 0x00	; 0
 33e:	a0 40       	sbci	r26, 0x00	; 0
 340:	e1 f7       	brne	.-8      	; 0x33a <COG_init+0xc6>
 342:	00 c0       	rjmp	.+0      	; 0x344 <COG_init+0xd0>
 344:	00 00       	nop
 346:	85 e0       	ldi	r24, 0x05	; 5
 348:	6f e0       	ldi	r22, 0x0F	; 15
 34a:	ff de       	rcall	.-514    	; 0x14a <COG_sendbyte>
 34c:	8f ef       	ldi	r24, 0xFF	; 255
 34e:	96 e7       	ldi	r25, 0x76	; 118
 350:	a1 e0       	ldi	r26, 0x01	; 1
 352:	81 50       	subi	r24, 0x01	; 1
 354:	90 40       	sbci	r25, 0x00	; 0
 356:	a0 40       	sbci	r26, 0x00	; 0
 358:	e1 f7       	brne	.-8      	; 0x352 <COG_init+0xde>
 35a:	00 c0       	rjmp	.+0      	; 0x35c <COG_init+0xe8>
 35c:	00 00       	nop
 35e:	82 e0       	ldi	r24, 0x02	; 2
 360:	64 e2       	ldi	r22, 0x24	; 36
 362:	f3 de       	rcall	.-538    	; 0x14a <COG_sendbyte>
 364:	85 e3       	ldi	r24, 0x35	; 53
 366:	91 e0       	ldi	r25, 0x01	; 1
 368:	6a e0       	ldi	r22, 0x0A	; 10
 36a:	9e d0       	rcall	.+316    	; 0x4a8 <usart_sendarray>
 36c:	2a 96       	adiw	r28, 0x0a	; 10
 36e:	0f b6       	in	r0, 0x3f	; 63
 370:	f8 94       	cli
 372:	de bf       	out	0x3e, r29	; 62
 374:	0f be       	out	0x3f, r0	; 63
 376:	cd bf       	out	0x3d, r28	; 61
 378:	df 91       	pop	r29
 37a:	cf 91       	pop	r28
 37c:	08 95       	ret

0000037e <COG_write>:
 37e:	0f 93       	push	r16
 380:	1f 93       	push	r17
 382:	cf 93       	push	r28
 384:	df 93       	push	r29
 386:	8c 01       	movw	r16, r24
 388:	80 e4       	ldi	r24, 0x40	; 64
 38a:	91 e0       	ldi	r25, 0x01	; 1
 38c:	6d e0       	ldi	r22, 0x0D	; 13
 38e:	8c d0       	rcall	.+280    	; 0x4a8 <usart_sendarray>
 390:	c0 e0       	ldi	r28, 0x00	; 0
 392:	d0 e0       	ldi	r29, 0x00	; 0
 394:	84 e0       	ldi	r24, 0x04	; 4
 396:	63 e0       	ldi	r22, 0x03	; 3
 398:	d8 de       	rcall	.-592    	; 0x14a <COG_sendbyte>
 39a:	b8 01       	movw	r22, r16
 39c:	6c 0f       	add	r22, r28
 39e:	7d 1f       	adc	r23, r29
 3a0:	8a e0       	ldi	r24, 0x0A	; 10
 3a2:	4c e4       	ldi	r20, 0x4C	; 76
 3a4:	f0 de       	rcall	.-544    	; 0x186 <COG_sendarray>
 3a6:	82 e0       	ldi	r24, 0x02	; 2
 3a8:	6f e2       	ldi	r22, 0x2F	; 47
 3aa:	cf de       	rcall	.-610    	; 0x14a <COG_sendbyte>
 3ac:	c0 5a       	subi	r28, 0xA0	; 160
 3ae:	df 4f       	sbci	r29, 0xFF	; 255
 3b0:	84 e2       	ldi	r24, 0x24	; 36
 3b2:	c0 30       	cpi	r28, 0x00	; 0
 3b4:	d8 07       	cpc	r29, r24
 3b6:	71 f7       	brne	.-36     	; 0x394 <COG_write+0x16>
 3b8:	df 91       	pop	r29
 3ba:	cf 91       	pop	r28
 3bc:	1f 91       	pop	r17
 3be:	0f 91       	pop	r16
 3c0:	08 95       	ret

000003c2 <__vector_12>:
 3c2:	1f 92       	push	r1
 3c4:	0f 92       	push	r0
 3c6:	0f b6       	in	r0, 0x3f	; 63
 3c8:	0f 92       	push	r0
 3ca:	11 24       	eor	r1, r1
 3cc:	1d bc       	out	0x2d, r1	; 45
 3ce:	1c bc       	out	0x2c, r1	; 44
 3d0:	0f 90       	pop	r0
 3d2:	0f be       	out	0x3f, r0	; 63
 3d4:	0f 90       	pop	r0
 3d6:	1f 90       	pop	r1
 3d8:	18 95       	reti

000003da <main>:
 3da:	77 de       	rcall	.-786    	; 0xca <ddr_setup>
 3dc:	85 de       	rcall	.-758    	; 0xe8 <spi_setup>
 3de:	89 de       	rcall	.-750    	; 0xf2 <pwm_setup>
 3e0:	60 e0       	ldi	r22, 0x00	; 0
 3e2:	76 e9       	ldi	r23, 0x96	; 150
 3e4:	80 e0       	ldi	r24, 0x00	; 0
 3e6:	90 e0       	ldi	r25, 0x00	; 0
 3e8:	37 d0       	rcall	.+110    	; 0x458 <usart_setup>
 3ea:	78 94       	sei
 3ec:	8f ef       	ldi	r24, 0xFF	; 255
 3ee:	93 ec       	ldi	r25, 0xC3	; 195
 3f0:	a9 e0       	ldi	r26, 0x09	; 9
 3f2:	81 50       	subi	r24, 0x01	; 1
 3f4:	90 40       	sbci	r25, 0x00	; 0
 3f6:	a0 40       	sbci	r26, 0x00	; 0
 3f8:	e1 f7       	brne	.-8      	; 0x3f2 <main+0x18>
 3fa:	00 c0       	rjmp	.+0      	; 0x3fc <main+0x22>
 3fc:	00 00       	nop
 3fe:	10 92 4e 01 	sts	0x014E, r1
 402:	81 e6       	ldi	r24, 0x61	; 97
 404:	4a d0       	rcall	.+148    	; 0x49a <usart_sendbyte>
 406:	06 e0       	ldi	r16, 0x06	; 6
 408:	14 e0       	ldi	r17, 0x04	; 4
 40a:	d3 e0       	ldi	r29, 0x03	; 3
 40c:	c1 e0       	ldi	r28, 0x01	; 1
 40e:	80 91 4e 01 	lds	r24, 0x014E
 412:	83 30       	cpi	r24, 0x03	; 3
 414:	18 f4       	brcc	.+6      	; 0x41c <main+0x42>
 416:	81 30       	cpi	r24, 0x01	; 1
 418:	80 f4       	brcc	.+32     	; 0x43a <main+0x60>
 41a:	07 c0       	rjmp	.+14     	; 0x42a <main+0x50>
 41c:	84 30       	cpi	r24, 0x04	; 4
 41e:	a9 f0       	breq	.+42     	; 0x44a <main+0x70>
 420:	84 30       	cpi	r24, 0x04	; 4
 422:	78 f0       	brcs	.+30     	; 0x442 <main+0x68>
 424:	86 30       	cpi	r24, 0x06	; 6
 426:	a9 f7       	brne	.-22     	; 0x412 <main+0x38>
 428:	16 c0       	rjmp	.+44     	; 0x456 <main+0x7c>
 42a:	8f ec       	ldi	r24, 0xCF	; 207
 42c:	9d e1       	ldi	r25, 0x1D	; 29
 42e:	6f ef       	ldi	r22, 0xFF	; 255
 430:	4f ef       	ldi	r20, 0xFF	; 255
 432:	cd de       	rcall	.-614    	; 0x1ce <fill_image_buff>
 434:	c0 93 4e 01 	sts	0x014E, r28
 438:	ea cf       	rjmp	.-44     	; 0x40e <main+0x34>
 43a:	f0 de       	rcall	.-544    	; 0x21c <COG_startup>
 43c:	d0 93 4e 01 	sts	0x014E, r29
 440:	e6 cf       	rjmp	.-52     	; 0x40e <main+0x34>
 442:	18 df       	rcall	.-464    	; 0x274 <COG_init>
 444:	10 93 4e 01 	sts	0x014E, r17
 448:	e2 cf       	rjmp	.-60     	; 0x40e <main+0x34>
 44a:	8f ec       	ldi	r24, 0xCF	; 207
 44c:	9d e1       	ldi	r25, 0x1D	; 29
 44e:	97 df       	rcall	.-210    	; 0x37e <COG_write>
 450:	00 93 4e 01 	sts	0x014E, r16
 454:	dc cf       	rjmp	.-72     	; 0x40e <main+0x34>
 456:	ff cf       	rjmp	.-2      	; 0x456 <main+0x7c>

00000458 <usart_setup>:
 458:	0f 93       	push	r16
 45a:	1f 93       	push	r17
 45c:	9b 01       	movw	r18, r22
 45e:	ac 01       	movw	r20, r24
 460:	82 e0       	ldi	r24, 0x02	; 2
 462:	80 93 9b 00 	sts	0x009B, r24
 466:	88 e1       	ldi	r24, 0x18	; 24
 468:	80 93 9a 00 	sts	0x009A, r24
 46c:	86 e0       	ldi	r24, 0x06	; 6
 46e:	80 93 9d 00 	sts	0x009D, r24
 472:	60 e0       	ldi	r22, 0x00	; 0
 474:	79 e0       	ldi	r23, 0x09	; 9
 476:	8d e3       	ldi	r24, 0x3D	; 61
 478:	90 e0       	ldi	r25, 0x00	; 0
 47a:	33 d0       	rcall	.+102    	; 0x4e2 <__udivmodsi4>
 47c:	89 01       	movw	r16, r18
 47e:	9a 01       	movw	r18, r20
 480:	01 50       	subi	r16, 0x01	; 1
 482:	10 40       	sbci	r17, 0x00	; 0
 484:	20 40       	sbci	r18, 0x00	; 0
 486:	30 40       	sbci	r19, 0x00	; 0
 488:	36 95       	lsr	r19
 48a:	27 95       	ror	r18
 48c:	17 95       	ror	r17
 48e:	07 95       	ror	r16
 490:	00 93 99 00 	sts	0x0099, r16
 494:	1f 91       	pop	r17
 496:	0f 91       	pop	r16
 498:	08 95       	ret

0000049a <usart_sendbyte>:
 49a:	90 91 9b 00 	lds	r25, 0x009B
 49e:	95 ff       	sbrs	r25, 5
 4a0:	fc cf       	rjmp	.-8      	; 0x49a <usart_sendbyte>
 4a2:	80 93 9c 00 	sts	0x009C, r24
 4a6:	08 95       	ret

000004a8 <usart_sendarray>:
 4a8:	ef 92       	push	r14
 4aa:	ff 92       	push	r15
 4ac:	1f 93       	push	r17
 4ae:	cf 93       	push	r28
 4b0:	df 93       	push	r29
 4b2:	0f 92       	push	r0
 4b4:	cd b7       	in	r28, 0x3d	; 61
 4b6:	de b7       	in	r29, 0x3e	; 62
 4b8:	18 2f       	mov	r17, r24
 4ba:	e8 2e       	mov	r14, r24
 4bc:	f9 2e       	mov	r15, r25
 4be:	06 c0       	rjmp	.+12     	; 0x4cc <usart_sendarray+0x24>
 4c0:	f7 01       	movw	r30, r14
 4c2:	81 91       	ld	r24, Z+
 4c4:	7f 01       	movw	r14, r30
 4c6:	69 83       	std	Y+1, r22	; 0x01
 4c8:	e8 df       	rcall	.-48     	; 0x49a <usart_sendbyte>
 4ca:	69 81       	ldd	r22, Y+1	; 0x01
 4cc:	8e 2d       	mov	r24, r14
 4ce:	81 1b       	sub	r24, r17
 4d0:	86 17       	cp	r24, r22
 4d2:	b0 f3       	brcs	.-20     	; 0x4c0 <usart_sendarray+0x18>
 4d4:	0f 90       	pop	r0
 4d6:	df 91       	pop	r29
 4d8:	cf 91       	pop	r28
 4da:	1f 91       	pop	r17
 4dc:	ff 90       	pop	r15
 4de:	ef 90       	pop	r14
 4e0:	08 95       	ret

000004e2 <__udivmodsi4>:
 4e2:	a1 e2       	ldi	r26, 0x21	; 33
 4e4:	1a 2e       	mov	r1, r26
 4e6:	aa 1b       	sub	r26, r26
 4e8:	bb 1b       	sub	r27, r27
 4ea:	fd 01       	movw	r30, r26
 4ec:	0d c0       	rjmp	.+26     	; 0x508 <__udivmodsi4_ep>

000004ee <__udivmodsi4_loop>:
 4ee:	aa 1f       	adc	r26, r26
 4f0:	bb 1f       	adc	r27, r27
 4f2:	ee 1f       	adc	r30, r30
 4f4:	ff 1f       	adc	r31, r31
 4f6:	a2 17       	cp	r26, r18
 4f8:	b3 07       	cpc	r27, r19
 4fa:	e4 07       	cpc	r30, r20
 4fc:	f5 07       	cpc	r31, r21
 4fe:	20 f0       	brcs	.+8      	; 0x508 <__udivmodsi4_ep>
 500:	a2 1b       	sub	r26, r18
 502:	b3 0b       	sbc	r27, r19
 504:	e4 0b       	sbc	r30, r20
 506:	f5 0b       	sbc	r31, r21

00000508 <__udivmodsi4_ep>:
 508:	66 1f       	adc	r22, r22
 50a:	77 1f       	adc	r23, r23
 50c:	88 1f       	adc	r24, r24
 50e:	99 1f       	adc	r25, r25
 510:	1a 94       	dec	r1
 512:	69 f7       	brne	.-38     	; 0x4ee <__udivmodsi4_loop>
 514:	60 95       	com	r22
 516:	70 95       	com	r23
 518:	80 95       	com	r24
 51a:	90 95       	com	r25
 51c:	9b 01       	movw	r18, r22
 51e:	ac 01       	movw	r20, r24
 520:	bd 01       	movw	r22, r26
 522:	cf 01       	movw	r24, r30
 524:	08 95       	ret

00000526 <_exit>:
 526:	f8 94       	cli

00000528 <__stop_program>:
 528:	ff cf       	rjmp	.-2      	; 0x528 <__stop_program>
