   1               		.file	"COG.c"
   2               	__SREG__ = 0x3f
   3               	__SP_H__ = 0x3e
   4               	__SP_L__ = 0x3d
   5               	__CCP__ = 0x34
   6               	__tmp_reg__ = 0
   7               	__zero_reg__ = 1
   8               		.section	.text.COG_busy,"ax",@progbits
   9               	.global	COG_busy
  11               	COG_busy:
  12               	/* prologue: function */
  13               	/* frame size = 0 */
  14               	/* stack size = 0 */
  15               	.L__stack_usage = 0
  16 0000 85E0      		 ldi r24,lo8(5)
  17 0002 8A95      	    1:dec r24
  18 0004 01F4      	    brne 1b
  19 0006 0000      		nop
  20 0008 86B3      		in r24,54-32
  21 000a 8078      		andi r24,lo8(-128)
  22               	/* epilogue start */
  23 000c 0895      		ret
  25               		.section	.text.COG_sendbyte,"ax",@progbits
  26               	.global	COG_sendbyte
  28               	COG_sendbyte:
  29 0000 CF93      		push r28
  30 0002 DF93      		push r29
  31               	/* prologue: function */
  32               	/* frame size = 0 */
  33               	/* stack size = 2 */
  34               	.L__stack_usage = 2
  35 0004 C82F      		mov r28,r24
  36 0006 D62F      		mov r29,r22
  37               	.L3:
  38 0008 0E94 0000 		call COG_busy
  39 000c 8823      		tst r24
  40 000e 01F4      		brne .L3
  41 0010 C09A      		sbi 56-32,0
  42 0012 85E3      		 ldi r24,lo8(53)
  43 0014 8A95      	    1:dec r24
  44 0016 01F4      	    brne 1b
  45 0018 0000      		nop
  46 001a C098      		cbi 56-32,0
  47 001c 80E7      		ldi r24,lo8(112)
  48 001e 0E94 0000 		call spi_sendbyte
  49 0022 8C2F      		mov r24,r28
  50 0024 0E94 0000 		call spi_sendbyte
  51               	.L4:
  52 0028 0E94 0000 		call COG_busy
  53 002c 8823      		tst r24
  54 002e 01F4      		brne .L4
  55 0030 C09A      		sbi 56-32,0
  56 0032 85E3      		 ldi r24,lo8(53)
  57 0034 8A95      	    1:dec r24
  58 0036 01F4      	    brne 1b
  59 0038 0000      		nop
  60 003a C098      		cbi 56-32,0
  61 003c 82E7      		ldi r24,lo8(114)
  62 003e 0E94 0000 		call spi_sendbyte
  63 0042 8D2F      		mov r24,r29
  64 0044 0E94 0000 		call spi_sendbyte
  65 0048 C09A      		sbi 56-32,0
  66               	/* epilogue start */
  67 004a DF91      		pop r29
  68 004c CF91      		pop r28
  69 004e 0895      		ret
  71               		.section	.text.COG_sendarray,"ax",@progbits
  72               	.global	COG_sendarray
  74               	COG_sendarray:
  75 0000 0F93      		push r16
  76 0002 1F93      		push r17
  77 0004 CF93      		push r28
  78 0006 DF93      		push r29
  79               	/* prologue: function */
  80               	/* frame size = 0 */
  81               	/* stack size = 4 */
  82               	.L__stack_usage = 4
  83 0008 182F      		mov r17,r24
  84 000a EB01      		movw r28,r22
  85 000c 042F      		mov r16,r20
  86               	.L8:
  87 000e 0E94 0000 		call COG_busy
  88 0012 8823      		tst r24
  89 0014 01F4      		brne .L8
  90 0016 C09A      		sbi 56-32,0
  91 0018 85E3      		 ldi r24,lo8(53)
  92 001a 8A95      	    1:dec r24
  93 001c 01F4      	    brne 1b
  94 001e 0000      		nop
  95 0020 C098      		cbi 56-32,0
  96 0022 80E7      		ldi r24,lo8(112)
  97 0024 0E94 0000 		call spi_sendbyte
  98 0028 812F      		mov r24,r17
  99 002a 0E94 0000 		call spi_sendbyte
 100               	.L9:
 101 002e 0E94 0000 		call COG_busy
 102 0032 8823      		tst r24
 103 0034 01F4      		brne .L9
 104 0036 C09A      		sbi 56-32,0
 105 0038 85E3      		 ldi r24,lo8(53)
 106 003a 8A95      	    1:dec r24
 107 003c 01F4      	    brne 1b
 108 003e 0000      		nop
 109 0040 C098      		cbi 56-32,0
 110 0042 82E7      		ldi r24,lo8(114)
 111 0044 0E94 0000 		call spi_sendbyte
 112 0048 CE01      		movw r24,r28
 113 004a 602F      		mov r22,r16
 114 004c 0E94 0000 		call spi_sendarray
 115 0050 C09A      		sbi 56-32,0
 116               	/* epilogue start */
 117 0052 DF91      		pop r29
 118 0054 CF91      		pop r28
 119 0056 1F91      		pop r17
 120 0058 0F91      		pop r16
 121 005a 0895      		ret
 123               		.data
 124               	.LC0:
 125 0000 7374 6172 		.string	"start up COG\n"
 125      7420 7570 
 125      2043 4F47 
 125      0A00 
 126               		.section	.text.COG_startup,"ax",@progbits
 127               	.global	COG_startup
 129               	COG_startup:
 130               	/* prologue: function */
 131               	/* frame size = 0 */
 132               	/* stack size = 0 */
 133               	.L__stack_usage = 0
 134 0000 80E0      		ldi r24,lo8(.LC0)
 135 0002 90E0      		ldi r25,hi8(.LC0)
 136 0004 6DE0      		ldi r22,lo8(13)
 137 0006 0E94 0000 		call usart_sendarray
 138 000a 1C98      		cbi 35-32,4
 139 000c C698      		cbi 56-32,6
 140 000e 1998      		cbi 35-32,1
 141 0010 C498      		cbi 56-32,4
 142 0012 C098      		cbi 56-32,0
 143 0014 C198      		cbi 56-32,1
 144 0016 C298      		cbi 56-32,2
 145 0018 80E0      		ldi r24,lo8(0)
 146 001a 0E94 0000 		call spi_sendbyte
 147 001e 80E0      		ldi r24,lo8(0)
 148 0020 0E94 0000 		call spi_sendbyte
 149 0024 8EB5      		in r24,78-32
 150 0026 8160      		ori r24,lo8(1)
 151 0028 8EBD      		out 78-32,r24
 152 002a 8FE1      		 ldi r24,lo8(19999)
 153 002c 9EE4      	    ldi r25,hi8(19999)
 154 002e 0197      	    1:sbiw r24,1
 155 0030 01F4      	    brne 1b
 156 0032 00C0      		rjmp .
 157 0034 0000      		nop
 158 0036 C09A      		sbi 56-32,0
 159 0038 8FE3      		 ldi r24,lo8(-25537)
 160 003a 9CE9      	    ldi r25,hi8(-25537)
 161 003c 0197      	    1:sbiw r24,1
 162 003e 01F4      	    brne 1b
 163 0040 00C0      		rjmp .
 164 0042 0000      		nop
 165 0044 C09A      		sbi 56-32,0
 166 0046 C49A      		sbi 56-32,4
 167 0048 1C9A      		sbi 35-32,4
 168 004a 8FE1      		 ldi r24,lo8(19999)
 169 004c 9EE4      	    ldi r25,hi8(19999)
 170 004e 0197      	    1:sbiw r24,1
 171 0050 01F4      	    brne 1b
 172 0052 00C0      		rjmp .
 173 0054 0000      		nop
 174 0056 1C98      		cbi 35-32,4
 175 0058 8FE1      		 ldi r24,lo8(19999)
 176 005a 9EE4      	    ldi r25,hi8(19999)
 177 005c 0197      	    1:sbiw r24,1
 178 005e 01F4      	    brne 1b
 179 0060 00C0      		rjmp .
 180 0062 0000      		nop
 181 0064 1C9A      		sbi 35-32,4
 182 0066 8FE1      		 ldi r24,lo8(19999)
 183 0068 9EE4      	    ldi r25,hi8(19999)
 184 006a 0197      	    1:sbiw r24,1
 185 006c 01F4      	    brne 1b
 186 006e 00C0      		rjmp .
 187 0070 0000      		nop
 188               	/* epilogue start */
 189 0072 0895      		ret
 191               		.data
 192               	.LC1:
 193 000e 434F 4720 		.string	"COG init\n"
 193      696E 6974 
 193      0A00 
 194               	.LC2:
 195 0018 6275 7379 		.string	"busy\n"
 195      0A00 
 196               	.LC3:
 197 001e 6E6F 7420 		.string	"not busy\n"
 197      6275 7379 
 197      0A00 
 198               	.LC4:
 199 0028 696E 6974 		.string	"init done\n"
 199      2064 6F6E 
 199      650A 00
 200               		.section	.text.COG_init,"ax",@progbits
 201               	.global	COG_init
 203               	COG_init:
 204 0000 DF93      		push r29
 205 0002 CF93      		push r28
 206 0004 CDB7      		in r28,__SP_L__
 207 0006 DEB7      		in r29,__SP_H__
 208 0008 2A97      		sbiw r28,10
 209 000a 0FB6      		in __tmp_reg__,__SREG__
 210 000c F894      		cli
 211 000e DEBF      		out __SP_H__,r29
 212 0010 0FBE      		out __SREG__,__tmp_reg__
 213 0012 CDBF      		out __SP_L__,r28
 214               	/* prologue: function */
 215               	/* frame size = 10 */
 216               	/* stack size = 12 */
 217               	.L__stack_usage = 12
 218 0014 80E0      		ldi r24,lo8(.LC1)
 219 0016 90E0      		ldi r25,hi8(.LC1)
 220 0018 69E0      		ldi r22,lo8(9)
 221 001a 0E94 0000 		call usart_sendarray
 222 001e 1B82      		std Y+3,__zero_reg__
 223 0020 1C82      		std Y+4,__zero_reg__
 224 0022 1D82      		std Y+5,__zero_reg__
 225 0024 1E82      		std Y+6,__zero_reg__
 226 0026 81E0      		ldi r24,lo8(1)
 227 0028 8F83      		std Y+7,r24
 228 002a 8FEF      		ldi r24,lo8(-1)
 229 002c 8887      		std Y+8,r24
 230 002e 80EE      		ldi r24,lo8(-32)
 231 0030 8987      		std Y+9,r24
 232 0032 1A86      		std Y+10,__zero_reg__
 233 0034 80ED      		ldi r24,lo8(-48)
 234 0036 8983      		std Y+1,r24
 235 0038 1A82      		std Y+2,__zero_reg__
 236 003a 80E0      		ldi r24,lo8(.LC2)
 237 003c 90E0      		ldi r25,hi8(.LC2)
 238 003e 65E0      		ldi r22,lo8(5)
 239 0040 0E94 0000 		call usart_sendarray
 240               	.L14:
 241 0044 0E94 0000 		call COG_busy
 242 0048 8823      		tst r24
 243 004a 01F4      		brne .L14
 244 004c 80E0      		ldi r24,lo8(.LC3)
 245 004e 90E0      		ldi r25,hi8(.LC3)
 246 0050 69E0      		ldi r22,lo8(9)
 247 0052 0E94 0000 		call usart_sendarray
 248 0056 81E0      		ldi r24,lo8(1)
 249 0058 BE01      		movw r22,r28
 250 005a 6D5F      		subi r22,lo8(-(3))
 251 005c 7F4F      		sbci r23,hi8(-(3))
 252 005e 48E0      		ldi r20,lo8(8)
 253 0060 0E94 0000 		call COG_sendarray
 254 0064 86E0      		ldi r24,lo8(6)
 255 0066 6FEF      		ldi r22,lo8(-1)
 256 0068 0E94 0000 		call COG_sendbyte
 257 006c 87E0      		ldi r24,lo8(7)
 258 006e 6DE9      		ldi r22,lo8(-99)
 259 0070 0E94 0000 		call COG_sendbyte
 260 0074 88E0      		ldi r24,lo8(8)
 261 0076 60E0      		ldi r22,lo8(0)
 262 0078 0E94 0000 		call COG_sendbyte
 263 007c 89E0      		ldi r24,lo8(9)
 264 007e BE01      		movw r22,r28
 265 0080 6F5F      		subi r22,lo8(-(1))
 266 0082 7F4F      		sbci r23,hi8(-(1))
 267 0084 42E0      		ldi r20,lo8(2)
 268 0086 0E94 0000 		call COG_sendarray
 269 008a 84E0      		ldi r24,lo8(4)
 270 008c 63E0      		ldi r22,lo8(3)
 271 008e 0E94 0000 		call COG_sendbyte
 272 0092 8FE1      		 ldi r24,lo8(19999)
 273 0094 9EE4      	    ldi r25,hi8(19999)
 274 0096 0197      	    1:sbiw r24,1
 275 0098 01F4      	    brne 1b
 276 009a 00C0      		rjmp .
 277 009c 0000      		nop
 278 009e 83E0      		ldi r24,lo8(3)
 279 00a0 61E0      		ldi r22,lo8(1)
 280 00a2 0E94 0000 		call COG_sendbyte
 281 00a6 83E0      		ldi r24,lo8(3)
 282 00a8 60E0      		ldi r22,lo8(0)
 283 00aa 0E94 0000 		call COG_sendbyte
 284 00ae 85E0      		ldi r24,lo8(5)
 285 00b0 61E0      		ldi r22,lo8(1)
 286 00b2 0E94 0000 		call COG_sendbyte
 287 00b6 8FEF      		 ldi r24,lo8(95999)
 288 00b8 96E7      	    ldi r25,hi8(95999)
 289 00ba A1E0      	    ldi r26,hlo8(95999)
 290 00bc 8150      	    1:subi r24,1
 291 00be 9040      	    sbci r25,0
 292 00c0 A040      	    sbci r26,0
 293 00c2 01F4      	    brne 1b
 294 00c4 00C0      		rjmp .
 295 00c6 0000      		nop
 296 00c8 8EB5      		in r24,78-32
 297 00ca 887F      		andi r24,lo8(-8)
 298 00cc 8EBD      		out 78-32,r24
 299 00ce C598      		cbi 56-32,5
 300 00d0 85E0      		ldi r24,lo8(5)
 301 00d2 63E0      		ldi r22,lo8(3)
 302 00d4 0E94 0000 		call COG_sendbyte
 303 00d8 8FEF      		 ldi r24,lo8(95999)
 304 00da 96E7      	    ldi r25,hi8(95999)
 305 00dc A1E0      	    ldi r26,hlo8(95999)
 306 00de 8150      	    1:subi r24,1
 307 00e0 9040      	    sbci r25,0
 308 00e2 A040      	    sbci r26,0
 309 00e4 01F4      	    brne 1b
 310 00e6 00C0      		rjmp .
 311 00e8 0000      		nop
 312 00ea 85E0      		ldi r24,lo8(5)
 313 00ec 6FE0      		ldi r22,lo8(15)
 314 00ee 0E94 0000 		call COG_sendbyte
 315 00f2 8FEF      		 ldi r24,lo8(95999)
 316 00f4 96E7      	    ldi r25,hi8(95999)
 317 00f6 A1E0      	    ldi r26,hlo8(95999)
 318 00f8 8150      	    1:subi r24,1
 319 00fa 9040      	    sbci r25,0
 320 00fc A040      	    sbci r26,0
 321 00fe 01F4      	    brne 1b
 322 0100 00C0      		rjmp .
 323 0102 0000      		nop
 324 0104 82E0      		ldi r24,lo8(2)
 325 0106 64E2      		ldi r22,lo8(36)
 326 0108 0E94 0000 		call COG_sendbyte
 327 010c 80E0      		ldi r24,lo8(0)
 328 010e 0E94 0000 		call spi_sendbyte
 329 0112 80E0      		ldi r24,lo8(0)
 330 0114 0E94 0000 		call spi_sendbyte
 331 0118 80E0      		ldi r24,lo8(.LC4)
 332 011a 90E0      		ldi r25,hi8(.LC4)
 333 011c 6AE0      		ldi r22,lo8(10)
 334 011e 0E94 0000 		call usart_sendarray
 335               	/* epilogue start */
 336 0122 2A96      		adiw r28,10
 337 0124 0FB6      		in __tmp_reg__,__SREG__
 338 0126 F894      		cli
 339 0128 DEBF      		out __SP_H__,r29
 340 012a 0FBE      		out __SREG__,__tmp_reg__
 341 012c CDBF      		out __SP_L__,r28
 342 012e CF91      		pop r28
 343 0130 DF91      		pop r29
 344 0132 0895      		ret
 346               		.data
 347               	.LC5:
 348 0033 7772 6974 		.string	"writing to COG\n"
 348      696E 6720 
 348      746F 2043 
 348      4F47 0A00 
 349               		.section	.text.COG_write_array,"ax",@progbits
 350               	.global	COG_write_array
 352               	COG_write_array:
 353 0000 0F93      		push r16
 354 0002 1F93      		push r17
 355 0004 CF93      		push r28
 356 0006 DF93      		push r29
 357               	/* prologue: function */
 358               	/* frame size = 0 */
 359               	/* stack size = 4 */
 360               	.L__stack_usage = 4
 361 0008 082F      		mov r16,r24
 362 000a C92F      		mov r28,r25
 363 000c 80E0      		ldi r24,lo8(.LC5)
 364 000e 90E0      		ldi r25,hi8(.LC5)
 365 0010 6FE0      		ldi r22,lo8(15)
 366 0012 0E94 0000 		call usart_sendarray
 367 0016 8C2F      		mov r24,r28
 368 0018 C02F      		mov r28,r16
 369 001a D82F      		mov r29,r24
 370 001c 8E01      		movw r16,r28
 371 001e 0050      		subi r16,lo8(-(9216))
 372 0020 1C4D      		sbci r17,hi8(-(9216))
 373               	.L17:
 374 0022 84E0      		ldi r24,lo8(4)
 375 0024 63E0      		ldi r22,lo8(3)
 376 0026 0E94 0000 		call COG_sendbyte
 377 002a 8AE0      		ldi r24,lo8(10)
 378 002c BE01      		movw r22,r28
 379 002e 4CE4      		ldi r20,lo8(76)
 380 0030 0E94 0000 		call COG_sendarray
 381 0034 82E0      		ldi r24,lo8(2)
 382 0036 6FE2      		ldi r22,lo8(47)
 383 0038 0E94 0000 		call COG_sendbyte
 384 003c C05A      		subi r28,lo8(-(96))
 385 003e DF4F      		sbci r29,hi8(-(96))
 386 0040 C017      		cp r28,r16
 387 0042 D107      		cpc r29,r17
 388 0044 01F4      		brne .L17
 389               	/* epilogue start */
 390 0046 DF91      		pop r29
 391 0048 CF91      		pop r28
 392 004a 1F91      		pop r17
 393 004c 0F91      		pop r16
 394 004e 0895      		ret
 396               		.section	.text.COG_write_fixed_line,"ax",@progbits
 397               	.global	COG_write_fixed_line
 399               	COG_write_fixed_line:
 400 0000 0F93      		push r16
 401 0002 1F93      		push r17
 402 0004 CF93      		push r28
 403 0006 DF93      		push r29
 404               	/* prologue: function */
 405               	/* frame size = 0 */
 406               	/* stack size = 4 */
 407               	.L__stack_usage = 4
 408 0008 D82F      		mov r29,r24
 409 000a C62F      		mov r28,r22
 410 000c 84E0      		ldi r24,lo8(4)
 411 000e 63E0      		ldi r22,lo8(3)
 412 0010 0E94 0000 		call COG_sendbyte
 413               	.L20:
 414 0014 0E94 0000 		call COG_busy
 415 0018 8823      		tst r24
 416 001a 01F4      		brne .L20
 417 001c C09A      		sbi 56-32,0
 418 001e 85E3      		 ldi r24,lo8(53)
 419 0020 8A95      	    1:dec r24
 420 0022 01F4      	    brne 1b
 421 0024 0000      		nop
 422 0026 C098      		cbi 56-32,0
 423 0028 80E7      		ldi r24,lo8(112)
 424 002a 0E94 0000 		call spi_sendbyte
 425 002e 8AE0      		ldi r24,lo8(10)
 426 0030 0E94 0000 		call spi_sendbyte
 427               	.L21:
 428 0034 0E94 0000 		call COG_busy
 429 0038 8823      		tst r24
 430 003a 01F4      		brne .L21
 431 003c C09A      		sbi 56-32,0
 432 003e 85E3      		 ldi r24,lo8(53)
 433 0040 8A95      	    1:dec r24
 434 0042 01F4      	    brne 1b
 435 0044 0000      		nop
 436 0046 C098      		cbi 56-32,0
 437 0048 82E7      		ldi r24,lo8(114)
 438 004a 0E94 0000 		call spi_sendbyte
 439 004e 19E1      		ldi r17,lo8(25)
 440               	.L40:
 441 0050 0E94 0000 		call COG_busy
 442 0054 8823      		tst r24
 443 0056 01F4      		brne .L40
 444 0058 8C2F      		mov r24,r28
 445 005a 0E94 0000 		call spi_sendbyte
 446 005e 1150      		subi r17,lo8(-(-1))
 447 0060 01F4      		brne .L40
 448 0062 0D2F      		mov r16,r29
 449 0064 0695      		lsr r16
 450 0066 0695      		lsr r16
 451 0068 2D2F      		mov r18,r29
 452 006a 30E0      		ldi r19,lo8(0)
 453 006c 2370      		andi r18,lo8(3)
 454 006e 3070      		andi r19,hi8(3)
 455 0070 220F      		lsl r18
 456 0072 331F      		rol r19
 457 0074 40EC      		ldi r20,lo8(192)
 458 0076 50E0      		ldi r21,hi8(192)
 459 0078 00C0      		rjmp 2f
 460 007a 5595      	1:	asr r21
 461 007c 4795      		ror r20
 462 007e 2A95      	2:	dec r18
 463 0080 02F4      		brpl 1b
 464 0082 142F      		mov r17,r20
 465 0084 D0E0      		ldi r29,lo8(0)
 466               	.L41:
 467 0086 0E94 0000 		call COG_busy
 468 008a 8823      		tst r24
 469 008c 01F4      		brne .L41
 470 008e 0D17      		cp r16,r29
 471 0090 01F4      		brne .L25
 472 0092 812F      		mov r24,r17
 473 0094 00C0      		rjmp .L43
 474               	.L25:
 475 0096 80E0      		ldi r24,lo8(0)
 476               	.L43:
 477 0098 0E94 0000 		call spi_sendbyte
 478 009c DF5F      		subi r29,lo8(-(1))
 479 009e D831      		cpi r29,lo8(24)
 480 00a0 01F4      		brne .L41
 481 00a2 D9E1      		ldi r29,lo8(25)
 482               	.L42:
 483 00a4 0E94 0000 		call COG_busy
 484 00a8 8823      		tst r24
 485 00aa 01F4      		brne .L42
 486 00ac 8C2F      		mov r24,r28
 487 00ae 0E94 0000 		call spi_sendbyte
 488 00b2 D150      		subi r29,lo8(-(-1))
 489 00b4 01F4      		brne .L42
 490 00b6 80E0      		ldi r24,lo8(0)
 491 00b8 0E94 0000 		call spi_sendbyte
 492               	.L30:
 493 00bc 0E94 0000 		call COG_busy
 494 00c0 8823      		tst r24
 495 00c2 01F4      		brne .L30
 496 00c4 82E0      		ldi r24,lo8(2)
 497 00c6 6FE2      		ldi r22,lo8(47)
 498 00c8 0E94 0000 		call COG_sendbyte
 499 00cc 80E0      		ldi r24,lo8(0)
 500 00ce 0E94 0000 		call spi_sendbyte
 501 00d2 80E0      		ldi r24,lo8(0)
 502 00d4 0E94 0000 		call spi_sendbyte
 503               	/* epilogue start */
 504 00d8 DF91      		pop r29
 505 00da CF91      		pop r28
 506 00dc 1F91      		pop r17
 507 00de 0F91      		pop r16
 508 00e0 0895      		ret
 510               		.data
 511               	.LC6:
 512 0043 7772 6974 		.string	"writing fixed image\n"
 512      696E 6720 
 512      6669 7865 
 512      6420 696D 
 512      6167 650A 
 513               		.section	.text.COG_write_fixed_image,"ax",@progbits
 514               	.global	COG_write_fixed_image
 516               	COG_write_fixed_image:
 517 0000 CF93      		push r28
 518 0002 DF93      		push r29
 519               	/* prologue: function */
 520               	/* frame size = 0 */
 521               	/* stack size = 2 */
 522               	.L__stack_usage = 2
 523 0004 C82F      		mov r28,r24
 524 0006 80E0      		ldi r24,lo8(.LC6)
 525 0008 90E0      		ldi r25,hi8(.LC6)
 526 000a 64E1      		ldi r22,lo8(20)
 527 000c 0E94 0000 		call usart_sendarray
 528 0010 D0E0      		ldi r29,lo8(0)
 529               	.L45:
 530 0012 8D2F      		mov r24,r29
 531 0014 6C2F      		mov r22,r28
 532 0016 0E94 0000 		call COG_write_fixed_line
 533 001a DF5F      		subi r29,lo8(-(1))
 534 001c D036      		cpi r29,lo8(96)
 535 001e 01F4      		brne .L45
 536               	/* epilogue start */
 537 0020 DF91      		pop r29
 538 0022 CF91      		pop r28
 539 0024 0895      		ret
 541               		.section	.text.COG_off,"ax",@progbits
 542               	.global	COG_off
 544               	COG_off:
 545               	/* prologue: function */
 546               	/* frame size = 0 */
 547               	/* stack size = 0 */
 548               	.L__stack_usage = 0
 549 0000 85E5      		ldi r24,lo8(85)
 550 0002 0E94 0000 		call COG_write_fixed_image
 551 0006 8FEF      		ldi r24,lo8(-1)
 552 0008 65E5      		ldi r22,lo8(85)
 553 000a 0E94 0000 		call COG_write_fixed_line
 554 000e 8FE7      		 ldi r24,lo8(79999)
 555 0010 98E3      	    ldi r25,hi8(79999)
 556 0012 A1E0      	    ldi r26,hlo8(79999)
 557 0014 8150      	    1:subi r24,1
 558 0016 9040      	    sbci r25,0
 559 0018 A040      	    sbci r26,0
 560 001a 01F4      	    brne 1b
 561 001c 00C0      		rjmp .
 562 001e 0000      		nop
 563 0020 C498      		cbi 56-32,4
 564 0022 8FEF      		 ldi r24,lo8(799999)
 565 0024 94E3      	    ldi r25,hi8(799999)
 566 0026 ACE0      	    ldi r26,hlo8(799999)
 567 0028 8150      	    1:subi r24,1
 568 002a 9040      	    sbci r25,0
 569 002c A040      	    sbci r26,0
 570 002e 01F4      	    brne 1b
 571 0030 00C0      		rjmp .
 572 0032 0000      		nop
 573 0034 C49A      		sbi 56-32,4
 574 0036 80E0      		ldi r24,lo8(0)
 575 0038 0E94 0000 		call spi_sendbyte
 576 003c 80E0      		ldi r24,lo8(0)
 577 003e 0E94 0000 		call spi_sendbyte
 578 0042 83E0      		ldi r24,lo8(3)
 579 0044 61E0      		ldi r22,lo8(1)
 580 0046 0E94 0000 		call COG_sendbyte
 581 004a 82E0      		ldi r24,lo8(2)
 582 004c 65E0      		ldi r22,lo8(5)
 583 004e 0E94 0000 		call COG_sendbyte
 584 0052 85E0      		ldi r24,lo8(5)
 585 0054 6EE0      		ldi r22,lo8(14)
 586 0056 0E94 0000 		call COG_sendbyte
 587 005a 85E0      		ldi r24,lo8(5)
 588 005c 62E0      		ldi r22,lo8(2)
 589 005e 0E94 0000 		call COG_sendbyte
 590 0062 84E0      		ldi r24,lo8(4)
 591 0064 6CE0      		ldi r22,lo8(12)
 592 0066 0E94 0000 		call COG_sendbyte
 593 006a 8FE7      		 ldi r24,lo8(399999)
 594 006c 9AE1      	    ldi r25,hi8(399999)
 595 006e A6E0      	    ldi r26,hlo8(399999)
 596 0070 8150      	    1:subi r24,1
 597 0072 9040      	    sbci r25,0
 598 0074 A040      	    sbci r26,0
 599 0076 01F4      	    brne 1b
 600 0078 00C0      		rjmp .
 601 007a 0000      		nop
 602 007c 85E0      		ldi r24,lo8(5)
 603 007e 60E0      		ldi r22,lo8(0)
 604 0080 0E94 0000 		call COG_sendbyte
 605 0084 87E0      		ldi r24,lo8(7)
 606 0086 6DE0      		ldi r22,lo8(13)
 607 0088 0E94 0000 		call COG_sendbyte
 608 008c 84E0      		ldi r24,lo8(4)
 609 008e 60E5      		ldi r22,lo8(80)
 610 0090 0E94 0000 		call COG_sendbyte
 611 0094 8FEF      		 ldi r24,lo8(127999)
 612 0096 93EF      	    ldi r25,hi8(127999)
 613 0098 A1E0      	    ldi r26,hlo8(127999)
 614 009a 8150      	    1:subi r24,1
 615 009c 9040      	    sbci r25,0
 616 009e A040      	    sbci r26,0
 617 00a0 01F4      	    brne 1b
 618 00a2 00C0      		rjmp .
 619 00a4 0000      		nop
 620 00a6 84E0      		ldi r24,lo8(4)
 621 00a8 60EA      		ldi r22,lo8(-96)
 622 00aa 0E94 0000 		call COG_sendbyte
 623 00ae 8FEF      		 ldi r24,lo8(127999)
 624 00b0 93EF      	    ldi r25,hi8(127999)
 625 00b2 A1E0      	    ldi r26,hlo8(127999)
 626 00b4 8150      	    1:subi r24,1
 627 00b6 9040      	    sbci r25,0
 628 00b8 A040      	    sbci r26,0
 629 00ba 01F4      	    brne 1b
 630 00bc 00C0      		rjmp .
 631 00be 0000      		nop
 632 00c0 84E0      		ldi r24,lo8(4)
 633 00c2 60E0      		ldi r22,lo8(0)
 634 00c4 0E94 0000 		call COG_sendbyte
 635 00c8 1C98      		cbi 35-32,4
 636 00ca C698      		cbi 56-32,6
 637 00cc C498      		cbi 56-32,4
 638 00ce 80E0      		ldi r24,lo8(0)
 639 00d0 0E94 0000 		call spi_sendbyte
 640 00d4 80E0      		ldi r24,lo8(0)
 641 00d6 0E94 0000 		call spi_sendbyte
 642 00da C198      		cbi 56-32,1
 643 00dc C298      		cbi 56-32,2
 644 00de C098      		cbi 56-32,0
 645 00e0 199A      		sbi 35-32,1
 646 00e2 8FEF      		 ldi r24,lo8(479999)
 647 00e4 92E5      	    ldi r25,hi8(479999)
 648 00e6 A7E0      	    ldi r26,hlo8(479999)
 649 00e8 8150      	    1:subi r24,1
 650 00ea 9040      	    sbci r25,0
 651 00ec A040      	    sbci r26,0
 652 00ee 01F4      	    brne 1b
 653 00f0 00C0      		rjmp .
 654 00f2 0000      		nop
 655 00f4 1998      		cbi 35-32,1
 656               	/* epilogue start */
 657 00f6 0895      		ret
 659               	.global __do_copy_data
DEFINED SYMBOLS
                            *ABS*:00000000 COG.c
/var/folders/y3/l87hd1j977s0dlpscsplzjsw0000gq/T//ccsYzb2g.s:2      *ABS*:0000003f __SREG__
/var/folders/y3/l87hd1j977s0dlpscsplzjsw0000gq/T//ccsYzb2g.s:3      *ABS*:0000003e __SP_H__
/var/folders/y3/l87hd1j977s0dlpscsplzjsw0000gq/T//ccsYzb2g.s:4      *ABS*:0000003d __SP_L__
/var/folders/y3/l87hd1j977s0dlpscsplzjsw0000gq/T//ccsYzb2g.s:5      *ABS*:00000034 __CCP__
/var/folders/y3/l87hd1j977s0dlpscsplzjsw0000gq/T//ccsYzb2g.s:6      *ABS*:00000000 __tmp_reg__
/var/folders/y3/l87hd1j977s0dlpscsplzjsw0000gq/T//ccsYzb2g.s:7      *ABS*:00000001 __zero_reg__
/var/folders/y3/l87hd1j977s0dlpscsplzjsw0000gq/T//ccsYzb2g.s:11     .text.COG_busy:00000000 COG_busy
/var/folders/y3/l87hd1j977s0dlpscsplzjsw0000gq/T//ccsYzb2g.s:28     .text.COG_sendbyte:00000000 COG_sendbyte
/var/folders/y3/l87hd1j977s0dlpscsplzjsw0000gq/T//ccsYzb2g.s:74     .text.COG_sendarray:00000000 COG_sendarray
/var/folders/y3/l87hd1j977s0dlpscsplzjsw0000gq/T//ccsYzb2g.s:129    .text.COG_startup:00000000 COG_startup
/var/folders/y3/l87hd1j977s0dlpscsplzjsw0000gq/T//ccsYzb2g.s:203    .text.COG_init:00000000 COG_init
/var/folders/y3/l87hd1j977s0dlpscsplzjsw0000gq/T//ccsYzb2g.s:352    .text.COG_write_array:00000000 COG_write_array
/var/folders/y3/l87hd1j977s0dlpscsplzjsw0000gq/T//ccsYzb2g.s:399    .text.COG_write_fixed_line:00000000 COG_write_fixed_line
/var/folders/y3/l87hd1j977s0dlpscsplzjsw0000gq/T//ccsYzb2g.s:516    .text.COG_write_fixed_image:00000000 COG_write_fixed_image
/var/folders/y3/l87hd1j977s0dlpscsplzjsw0000gq/T//ccsYzb2g.s:544    .text.COG_off:00000000 COG_off

UNDEFINED SYMBOLS
spi_sendbyte
spi_sendarray
usart_sendarray
__do_copy_data
